target datalayout = "e-m:e-p270:32:32-p271:32:32-p272:64:64-i64:64-i128:128-f80:128-n8:16:32:64-S128"
target triple = "x86_64-pc-linux-gnu"

%"class.std::__cxx11::basic_string" = type { %"struct.std::__cxx11::basic_string<char>::_Alloc_hider", i64, %union.anon }
%"struct.std::__cxx11::basic_string<char>::_Alloc_hider" = type { ptr }
%union.anon = type { i64, [8 x i8] }
%"class.google::protobuf::internal::LogMessage" = type { i32, ptr, i32, %"class.std::__cxx11::basic_string" }
%"class.google::protobuf::internal::LogFinisher" = type { i8 }
%"struct.google::protobuf::internal::InternalMetadata::ContainerBase" = type { ptr }
%"class.google::protobuf::MessageLite" = type { ptr, %"class.google::protobuf::internal::InternalMetadata" }
%"class.google::protobuf::internal::InternalMetadata" = type { ptr }

@.str = private unnamed_addr constant [52 x i8] c"third_party/protobuf-lite/generated_message_util.cc\00", align 1
@.str.2 = private unnamed_addr constant [59 x i8] c"CHECK failed: submessage->GetArena() == submessage_arena: \00", align 1
@.str.3 = private unnamed_addr constant [50 x i8] c"CHECK failed: message_arena != submessage_arena: \00", align 1

; Function Attrs: alwaysinline mustprogress nounwind uwtable
define linkonce_odr noundef i32 @_ZNK6google8protobuf8internal16InternalMetadata6PtrTagEv(ptr noundef nonnull align 8 dereferenceable(8) %0) #12 comdat align 2 {
  %2 = alloca ptr, align 8
  store ptr %0, ptr %2, align 8, !tbaa !142
  %3 = load ptr, ptr %2, align 8
  %4 = getelementptr inbounds nuw %"class.google::protobuf::internal::InternalMetadata", ptr %3, i32 0, i32 0
  %5 = load ptr, ptr %4, align 8, !tbaa !206
  %6 = ptrtoint ptr %5 to i64
  %7 = and i64 %6, 1
  %8 = trunc i64 %7 to i32
  ret i32 %8
}

; Function Attrs: mustprogress nounwind uwtable
define linkonce_odr noundef ptr @_ZNK6google8protobuf8internal16InternalMetadata8PtrValueINS0_5ArenaEEEPT_v(ptr noundef nonnull align 8 dereferenceable(8) %0) #4 comdat align 2 {
  %2 = alloca ptr, align 8
  store ptr %0, ptr %2, align 8, !tbaa !142
  %3 = load ptr, ptr %2, align 8
  %4 = getelementptr inbounds nuw %"class.google::protobuf::internal::InternalMetadata", ptr %3, i32 0, i32 0
  %5 = load ptr, ptr %4, align 8, !tbaa !206
  %6 = ptrtoint ptr %5 to i64
  %7 = and i64 %6, -2
  %8 = inttoptr i64 %7 to ptr
  ret ptr %8
}

; Function Attrs: mustprogress nounwind uwtable
define linkonce_odr noundef ptr @_ZNK6google8protobuf8internal16InternalMetadata8PtrValueINS2_13ContainerBaseEEEPT_v(ptr noundef nonnull align 8 dereferenceable(8) %0) #4 comdat align 2 {
  %2 = alloca ptr, align 8
  store ptr %0, ptr %2, align 8, !tbaa !142
  %3 = load ptr, ptr %2, align 8
  %4 = getelementptr inbounds nuw %"class.google::protobuf::internal::InternalMetadata", ptr %3, i32 0, i32 0
  %5 = load ptr, ptr %4, align 8, !tbaa !206
  %6 = ptrtoint ptr %5 to i64
  %7 = and i64 %6, -2
  %8 = inttoptr i64 %7 to ptr
  ret ptr %8
}

; Function Attrs: alwaysinline mustprogress uwtable
define linkonce_odr noundef zeroext i1 @_ZNK6google8protobuf8internal16InternalMetadata19have_unknown_fieldsEv(ptr noundef nonnull align 8 dereferenceable(8) %0) #7 comdat align 2 {
  %2 = alloca ptr, align 8
  store ptr %0, ptr %2, align 8, !tbaa !142
  %3 = load ptr, ptr %2, align 8
  %4 = call noundef i32 @_ZNK6google8protobuf8internal16InternalMetadata6PtrTagEv(ptr noundef nonnull align 8 dereferenceable(8) %3)
  %5 = icmp eq i32 %4, 1
  ret i1 %5
}

; Function Attrs: alwaysinline mustprogress uwtable
define linkonce_odr noundef ptr @_ZNK6google8protobuf8internal16InternalMetadata5arenaEv(ptr noundef nonnull align 8 dereferenceable(8) %0) #7 comdat align 2 {
  %2 = alloca ptr, align 8
  %3 = alloca ptr, align 8
  store ptr %0, ptr %3, align 8, !tbaa !142
  %4 = load ptr, ptr %3, align 8
  %5 = call noundef zeroext i1 @_ZNK6google8protobuf8internal16InternalMetadata19have_unknown_fieldsEv(ptr noundef nonnull align 8 dereferenceable(8) %4)
  %6 = zext i1 %5 to i64
  %7 = call i64 @llvm.expect.i64(i64 %6, i64 0)
  %8 = icmp ne i64 %7, 0
  br i1 %8, label %9, label %13

9:                                                ; preds = %1
  %10 = call noundef ptr @_ZNK6google8protobuf8internal16InternalMetadata8PtrValueINS2_13ContainerBaseEEEPT_v(ptr noundef nonnull align 8 dereferenceable(8) %4)
  %11 = getelementptr inbounds nuw %"struct.google::protobuf::internal::InternalMetadata::ContainerBase", ptr %10, i32 0, i32 0
  %12 = load ptr, ptr %11, align 8, !tbaa !204
  store ptr %12, ptr %2, align 8
  br label %15

13:                                               ; preds = %1
  %14 = call noundef ptr @_ZNK6google8protobuf8internal16InternalMetadata8PtrValueINS0_5ArenaEEEPT_v(ptr noundef nonnull align 8 dereferenceable(8) %4)
  store ptr %14, ptr %2, align 8
  br label %15

15:                                               ; preds = %13, %9
  %16 = load ptr, ptr %2, align 8
  ret ptr %16
}

; Function Attrs: mustprogress uwtable
define linkonce_odr noundef ptr @_ZNK6google8protobuf11MessageLite8GetArenaEv(ptr noundef nonnull align 8 dereferenceable(16) %0) #5 comdat align 2 {
  %2 = alloca ptr, align 8
  store ptr %0, ptr %2, align 8, !tbaa !15
  %3 = load ptr, ptr %2, align 8
  %4 = getelementptr inbounds nuw %"class.google::protobuf::MessageLite", ptr %3, i32 0, i32 1
  %5 = call noundef ptr @_ZNK6google8protobuf8internal16InternalMetadata5arenaEv(ptr noundef nonnull align 8 dereferenceable(8) %4)
  ret ptr %5
}

; Function Attrs: mustprogress uwtable
define noundef ptr @_ZN6google8protobuf8internal23GetOwnedMessageInternalEPNS0_5ArenaEPNS0_11MessageLiteES3_(ptr noundef %0, ptr noundef %1, ptr noundef %2) #5 personality ptr @__gxx_personality_v0 {
  %4 = alloca ptr, align 8
  %5 = alloca ptr, align 8
  %6 = alloca ptr, align 8
  %7 = alloca ptr, align 8
  %8 = alloca %"class.google::protobuf::internal::LogMessage", align 8
  %9 = alloca i1, align 1
  %10 = alloca i1, align 1
  %11 = alloca ptr, align 8
  %12 = alloca i32, align 4
  %13 = alloca %"class.google::protobuf::internal::LogFinisher", align 1
  %14 = alloca %"class.google::protobuf::internal::LogMessage", align 8
  %15 = alloca i1, align 1
  %16 = alloca i1, align 1
  %17 = alloca %"class.google::protobuf::internal::LogFinisher", align 1
  %18 = alloca ptr, align 8
  store ptr %0, ptr %5, align 8, !tbaa !149
  store ptr %1, ptr %6, align 8, !tbaa !15
  store ptr %2, ptr %7, align 8, !tbaa !149
  br label %19

19:                                               ; preds = %36, %3
  br i1 false, label %20, label %52

20:                                               ; preds = %19
  %21 = load ptr, ptr %6, align 8, !tbaa !15
  %22 = call noundef ptr @_ZNK6google8protobuf11MessageLite8GetArenaEv(ptr noundef nonnull align 8 dereferenceable(16) %21)
  %23 = load ptr, ptr %7, align 8, !tbaa !149
  %24 = icmp eq ptr %22, %23
  store i1 false, ptr %9, align 1
  store i1 false, ptr %10, align 1
  call void @llvm.lifetime.start.p0(i64 1, ptr %13) #3
  br i1 %24, label %25, label %26

25:                                               ; preds = %20
  br label %30

26:                                               ; preds = %20
  call void @llvm.lifetime.start.p0(i64 56, ptr %8) #3
  store i1 true, ptr %9, align 1
  call void @_ZN6google8protobuf8internal10LogMessageC1ENS0_8LogLevelEPKci(ptr noundef nonnull align 8 dereferenceable(56) %8, i32 noundef 3, ptr noundef @.str, i32 noundef 722)
  store i1 true, ptr %10, align 1
  %27 = invoke noundef nonnull align 8 dereferenceable(56) ptr @_ZN6google8protobuf8internal10LogMessagelsEPKc(ptr noundef nonnull align 8 dereferenceable(56) %8, ptr noundef @.str.2)
          to label %28 unwind label %37

28:                                               ; preds = %26
  invoke void @_ZN6google8protobuf8internal11LogFinisheraSERNS1_10LogMessageE(ptr noundef nonnull align 1 dereferenceable(1) %13, ptr noundef nonnull align 8 dereferenceable(56) %27)
          to label %29 unwind label %41

29:                                               ; preds = %28
  br label %30

30:                                               ; preds = %29, %25
  call void @llvm.lifetime.end.p0(i64 1, ptr %13) #3
  %31 = load i1, ptr %10, align 1
  br i1 %31, label %32, label %33

32:                                               ; preds = %30
  call void @_ZN6google8protobuf8internal10LogMessageD1Ev(ptr noundef nonnull align 8 dereferenceable(56) %8) #3
  br label %33

33:                                               ; preds = %32, %30
  %34 = load i1, ptr %9, align 1
  br i1 %34, label %35, label %36

35:                                               ; preds = %33
  call void @llvm.lifetime.end.p0(i64 56, ptr %8) #3
  br label %36

36:                                               ; preds = %35, %33
  br label %19, !llvm.loop !151

37:                                               ; preds = %26
  %38 = landingpad { ptr, i32 }
          cleanup
  %39 = extractvalue { ptr, i32 } %38, 0
  store ptr %39, ptr %11, align 8
  %40 = extractvalue { ptr, i32 } %38, 1
  store i32 %40, ptr %12, align 4
  br label %45

41:                                               ; preds = %28
  %42 = landingpad { ptr, i32 }
          cleanup
  %43 = extractvalue { ptr, i32 } %42, 0
  store ptr %43, ptr %11, align 8
  %44 = extractvalue { ptr, i32 } %42, 1
  store i32 %44, ptr %12, align 4
  call void @llvm.lifetime.end.p0(i64 1, ptr %13) #3
  br label %45

45:                                               ; preds = %41, %37
  %46 = load i1, ptr %10, align 1
  br i1 %46, label %47, label %48

47:                                               ; preds = %45
  call void @_ZN6google8protobuf8internal10LogMessageD1Ev(ptr noundef nonnull align 8 dereferenceable(56) %8) #3
  br label %48

48:                                               ; preds = %47, %45
  %49 = load i1, ptr %9, align 1
  br i1 %49, label %50, label %51

50:                                               ; preds = %48
  call void @llvm.lifetime.end.p0(i64 56, ptr %8) #3
  br label %51

51:                                               ; preds = %50, %48
  br label %110

52:                                               ; preds = %19
  br label %53

53:                                               ; preds = %69, %52
  br i1 false, label %54, label %85

54:                                               ; preds = %53
  %55 = load ptr, ptr %5, align 8, !tbaa !149
  %56 = load ptr, ptr %7, align 8, !tbaa !149
  %57 = icmp ne ptr %55, %56
  store i1 false, ptr %15, align 1
  store i1 false, ptr %16, align 1
  call void @llvm.lifetime.start.p0(i64 1, ptr %17) #3
  br i1 %57, label %58, label %59

58:                                               ; preds = %54
  br label %63

59:                                               ; preds = %54
  call void @llvm.lifetime.start.p0(i64 56, ptr %14) #3
  store i1 true, ptr %15, align 1
  call void @_ZN6google8protobuf8internal10LogMessageC1ENS0_8LogLevelEPKci(ptr noundef nonnull align 8 dereferenceable(56) %14, i32 noundef 3, ptr noundef @.str, i32 noundef 723)
  store i1 true, ptr %16, align 1
  %60 = invoke noundef nonnull align 8 dereferenceable(56) ptr @_ZN6google8protobuf8internal10LogMessagelsEPKc(ptr noundef nonnull align 8 dereferenceable(56) %14, ptr noundef @.str.3)
          to label %61 unwind label %70

61:                                               ; preds = %59
  invoke void @_ZN6google8protobuf8internal11LogFinisheraSERNS1_10LogMessageE(ptr noundef nonnull align 1 dereferenceable(1) %17, ptr noundef nonnull align 8 dereferenceable(56) %60)
          to label %62 unwind label %74

62:                                               ; preds = %61
  br label %63

63:                                               ; preds = %62, %58
  call void @llvm.lifetime.end.p0(i64 1, ptr %17) #3
  %64 = load i1, ptr %16, align 1
  br i1 %64, label %65, label %66

65:                                               ; preds = %63
  call void @_ZN6google8protobuf8internal10LogMessageD1Ev(ptr noundef nonnull align 8 dereferenceable(56) %14) #3
  br label %66

66:                                               ; preds = %65, %63
  %67 = load i1, ptr %15, align 1
  br i1 %67, label %68, label %69

68:                                               ; preds = %66
  call void @llvm.lifetime.end.p0(i64 56, ptr %14) #3
  br label %69

69:                                               ; preds = %68, %66
  br label %53, !llvm.loop !152

70:                                               ; preds = %59
  %71 = landingpad { ptr, i32 }
          cleanup
  %72 = extractvalue { ptr, i32 } %71, 0
  store ptr %72, ptr %11, align 8
  %73 = extractvalue { ptr, i32 } %71, 1
  store i32 %73, ptr %12, align 4
  br label %78

74:                                               ; preds = %61
  %75 = landingpad { ptr, i32 }
          cleanup
  %76 = extractvalue { ptr, i32 } %75, 0
  store ptr %76, ptr %11, align 8
  %77 = extractvalue { ptr, i32 } %75, 1
  store i32 %77, ptr %12, align 4
  call void @llvm.lifetime.end.p0(i64 1, ptr %17) #3
  br label %78

78:                                               ; preds = %74, %70
  %79 = load i1, ptr %16, align 1
  br i1 %79, label %80, label %81

80:                                               ; preds = %78
  call void @_ZN6google8protobuf8internal10LogMessageD1Ev(ptr noundef nonnull align 8 dereferenceable(56) %14) #3
  br label %81

81:                                               ; preds = %80, %78
  %82 = load i1, ptr %15, align 1
  br i1 %82, label %83, label %84

83:                                               ; preds = %81
  call void @llvm.lifetime.end.p0(i64 56, ptr %14) #3
  br label %84

84:                                               ; preds = %83, %81
  br label %110

85:                                               ; preds = %53
  %86 = load ptr, ptr %5, align 8, !tbaa !149
  %87 = icmp ne ptr %86, null
  br i1 %87, label %88, label %95

88:                                               ; preds = %85
  %89 = load ptr, ptr %7, align 8, !tbaa !149
  %90 = icmp eq ptr %89, null
  br i1 %90, label %91, label %95

91:                                               ; preds = %88
  %92 = load ptr, ptr %5, align 8, !tbaa !149
  %93 = load ptr, ptr %6, align 8, !tbaa !15
  call void @_ZN6google8protobuf5Arena3OwnINS0_11MessageLiteEEEvPT_(ptr noundef nonnull align 8 dereferenceable(40) %92, ptr noundef %93)
  %94 = load ptr, ptr %6, align 8, !tbaa !15
  store ptr %94, ptr %4, align 8
  br label %108

95:                                               ; preds = %88, %85
  call void @llvm.lifetime.start.p0(i64 8, ptr %18) #3
  %96 = load ptr, ptr %6, align 8, !tbaa !15
  %97 = load ptr, ptr %5, align 8, !tbaa !149
  %98 = load ptr, ptr %96, align 8, !tbaa !7
  %99 = getelementptr inbounds ptr, ptr %98, i64 4
  %100 = load ptr, ptr %99, align 8
  %101 = call noundef ptr %100(ptr noundef nonnull align 8 dereferenceable(16) %96, ptr noundef %97)
  store ptr %101, ptr %18, align 8, !tbaa !15
  %102 = load ptr, ptr %18, align 8, !tbaa !15
  %103 = load ptr, ptr %6, align 8, !tbaa !15
  %104 = load ptr, ptr %102, align 8, !tbaa !7
  %105 = getelementptr inbounds ptr, ptr %104, i64 8
  %106 = load ptr, ptr %105, align 8
  call void %106(ptr noundef nonnull align 8 dereferenceable(16) %102, ptr noundef nonnull align 8 dereferenceable(16) %103)
  %107 = load ptr, ptr %18, align 8, !tbaa !15
  store ptr %107, ptr %4, align 8
  call void @llvm.lifetime.end.p0(i64 8, ptr %18) #3
  br label %108

108:                                              ; preds = %95, %91
  %109 = load ptr, ptr %4, align 8
  ret ptr %109

110:                                              ; preds = %84, %51
  %111 = load ptr, ptr %11, align 8
  %112 = load i32, ptr %12, align 4
  %113 = insertvalue { ptr, i32 } poison, ptr %111, 0
  %114 = insertvalue { ptr, i32 } %113, i32 %112, 1
  resume { ptr, i32 } %114
}