; Function Attrs: mustprogress uwtable
define noundef ptr @_ZN6google8protobuf8internal23GetOwnedMessageInternalEPNS0_5ArenaEPNS0_11MessageLiteES3_(ptr noundef %0, ptr noundef %1, ptr noundef readnone %2) local_unnamed_addr #4 personality ptr @__gxx_personality_v0 {
  %4 = icmp ne ptr %0, null
  %5 = icmp eq ptr %2, null
  %or.cond = and i1 %4, %5
  br i1 %or.cond, label %6, label %7

6:                                                ; preds = %3
  tail call void @_ZN6google8protobuf5Arena3OwnINS0_11MessageLiteEEEvPT_(ptr noundef nonnull align 8 dereferenceable(40) %0, ptr noundef %1)
  br label %15

7:                                                ; preds = %3
  %8 = load ptr, ptr %1, align 8, !tbaa !3
  %9 = getelementptr inbounds nuw i8, ptr %8, i64 32
  %10 = load ptr, ptr %9, align 8
  %11 = tail call noundef ptr %10(ptr noundef nonnull align 8 dereferenceable(16) %1, ptr noundef %0)
  %12 = load ptr, ptr %11, align 8, !tbaa !3
  %13 = getelementptr inbounds nuw i8, ptr %12, i64 64
  %14 = load ptr, ptr %13, align 8
  tail call void %14(ptr noundef nonnull align 8 dereferenceable(16) %11, ptr noundef nonnull align 8 dereferenceable(16) %1)
  br label %15

15:                                               ; preds = %7, %6
  %.0 = phi ptr [ %1, %6 ], [ %11, %7 ]
  ret ptr %.0
}